target datalayout = "e-m:e-p270:32:32-p271:32:32-p272:64:64-i64:64-i128:128-f80:128-n8:16:32:64-S128"
target triple = "x86_64-pc-linux-gnu"

%struct.jpeg_compress_struct = type { ptr, ptr, ptr, ptr, i32, i32, ptr, i32, i32, i32, i32, double, i32, i32, i32, ptr, [4 x ptr], [4 x ptr], [4 x ptr], [16 x i8], [16 x i8], [16 x i8], i32, ptr, i32, i32, i32, i32, i32, i32, i32, i32, i32, i8, i8, i8, i16, i16, i32, i32, i32, i32, i32, i32, i32, [4 x ptr], i32, i32, i32, [10 x i32], i32, i32, i32, i32, ptr, ptr, ptr, ptr, ptr, ptr, ptr, ptr, ptr, ptr, i32 }
%struct.jpeg_memory_mgr = type { ptr, ptr, ptr, ptr, ptr, ptr, ptr, ptr, ptr, ptr, ptr, i64, i64 }
%struct.jpeg_destination_mgr = type { ptr, i64, ptr, ptr, ptr }
%struct.jpeg_error_mgr = type { ptr, ptr, ptr, ptr, ptr, i32, %union.anon, i32, i64, ptr, i32, ptr, i32, i32 }
%union.anon = type { [8 x i32], [48 x i8] }
%struct.my_destination_mgr = type { %struct.jpeg_destination_mgr, ptr, ptr }

; Function Attrs: nounwind uwtable
define void @jpeg_stdio_dest(ptr noundef %0, ptr noundef %1) #0 {
  %3 = alloca ptr, align 8
  %4 = alloca ptr, align 8
  %5 = alloca ptr, align 8
  store ptr %0, ptr %3, align 8, !tbaa !3
  store ptr %1, ptr %4, align 8, !tbaa !8
  call void @llvm.lifetime.start.p0(i64 8, ptr %5) #6
  %6 = load ptr, ptr %3, align 8, !tbaa !3
  %7 = getelementptr inbounds nuw %struct.jpeg_compress_struct, ptr %6, i32 0, i32 6
  %8 = load ptr, ptr %7, align 8, !tbaa !10
  %9 = icmp eq ptr %8, null
  br i1 %9, label %10, label %20

10:                                               ; preds = %2
  %11 = load ptr, ptr %3, align 8, !tbaa !3
  %12 = getelementptr inbounds nuw %struct.jpeg_compress_struct, ptr %11, i32 0, i32 1
  %13 = load ptr, ptr %12, align 8, !tbaa !28
  %14 = getelementptr inbounds nuw %struct.jpeg_memory_mgr, ptr %13, i32 0, i32 0
  %15 = load ptr, ptr %14, align 8, !tbaa !29
  %16 = load ptr, ptr %3, align 8, !tbaa !3
  %17 = call ptr %15(ptr noundef %16, i32 noundef 0, i64 noundef 56)
  %18 = load ptr, ptr %3, align 8, !tbaa !3
  %19 = getelementptr inbounds nuw %struct.jpeg_compress_struct, ptr %18, i32 0, i32 6
  store ptr %17, ptr %19, align 8, !tbaa !10
  br label %39

20:                                               ; preds = %2
  %21 = load ptr, ptr %3, align 8, !tbaa !3
  %22 = getelementptr inbounds nuw %struct.jpeg_compress_struct, ptr %21, i32 0, i32 6
  %23 = load ptr, ptr %22, align 8, !tbaa !10
  %24 = getelementptr inbounds nuw %struct.jpeg_destination_mgr, ptr %23, i32 0, i32 2
  %25 = load ptr, ptr %24, align 8, !tbaa !32
  %26 = icmp ne ptr %25, @init_destination
  br i1 %26, label %27, label %38

27:                                               ; preds = %20
  %28 = load ptr, ptr %3, align 8, !tbaa !3
  %29 = getelementptr inbounds nuw %struct.jpeg_compress_struct, ptr %28, i32 0, i32 0
  %30 = load ptr, ptr %29, align 8, !tbaa !35
  %31 = getelementptr inbounds nuw %struct.jpeg_error_mgr, ptr %30, i32 0, i32 5
  store i32 23, ptr %31, align 8, !tbaa !36
  %32 = load ptr, ptr %3, align 8, !tbaa !3
  %33 = getelementptr inbounds nuw %struct.jpeg_compress_struct, ptr %32, i32 0, i32 0
  %34 = load ptr, ptr %33, align 8, !tbaa !35
  %35 = getelementptr inbounds nuw %struct.jpeg_error_mgr, ptr %34, i32 0, i32 0
  %36 = load ptr, ptr %35, align 8, !tbaa !39
  %37 = load ptr, ptr %3, align 8, !tbaa !3
  call void %36(ptr noundef %37)
  br label %38

38:                                               ; preds = %27, %20
  br label %39

39:                                               ; preds = %38, %10
  %40 = load ptr, ptr %3, align 8, !tbaa !3
  %41 = getelementptr inbounds nuw %struct.jpeg_compress_struct, ptr %40, i32 0, i32 6
  %42 = load ptr, ptr %41, align 8, !tbaa !10
  store ptr %42, ptr %5, align 8, !tbaa !40
  %43 = load ptr, ptr %5, align 8, !tbaa !40
  %44 = getelementptr inbounds nuw %struct.my_destination_mgr, ptr %43, i32 0, i32 0
  %45 = getelementptr inbounds nuw %struct.jpeg_destination_mgr, ptr %44, i32 0, i32 2
  store ptr @init_destination, ptr %45, align 8, !tbaa !41
  %46 = load ptr, ptr %5, align 8, !tbaa !40
  %47 = getelementptr inbounds nuw %struct.my_destination_mgr, ptr %46, i32 0, i32 0
  %48 = getelementptr inbounds nuw %struct.jpeg_destination_mgr, ptr %47, i32 0, i32 3
  store ptr @empty_output_buffer, ptr %48, align 8, !tbaa !43
  %49 = load ptr, ptr %5, align 8, !tbaa !40
  %50 = getelementptr inbounds nuw %struct.my_destination_mgr, ptr %49, i32 0, i32 0
  %51 = getelementptr inbounds nuw %struct.jpeg_destination_mgr, ptr %50, i32 0, i32 4
  store ptr @term_destination, ptr %51, align 8, !tbaa !44
  %52 = load ptr, ptr %4, align 8, !tbaa !8
  %53 = load ptr, ptr %5, align 8, !tbaa !40
  %54 = getelementptr inbounds nuw %struct.my_destination_mgr, ptr %53, i32 0, i32 1
  store ptr %52, ptr %54, align 8, !tbaa !45
  call void @llvm.lifetime.end.p0(i64 8, ptr %5) #6
  ret void
}