; Function Attrs: nounwind uwtable
define void @jpeg_stdio_dest(ptr noundef %0, ptr noundef %1) local_unnamed_addr #0 {
  %3 = getelementptr inbounds nuw i8, ptr %0, i64 40
  %4 = load ptr, ptr %3, align 8, !tbaa !3
  %5 = icmp eq ptr %4, null
  br i1 %5, label %6, label %11

6:                                                ; preds = %2
  %7 = getelementptr inbounds nuw i8, ptr %0, i64 8
  %8 = load ptr, ptr %7, align 8, !tbaa !24
  %9 = load ptr, ptr %8, align 8, !tbaa !25
  %10 = tail call ptr %9(ptr noundef nonnull %0, i32 noundef 0, i64 noundef 56) #8
  store ptr %10, ptr %3, align 8, !tbaa !3
  br label %18

11:                                               ; preds = %2
  %12 = getelementptr inbounds nuw i8, ptr %4, i64 16
  %13 = load ptr, ptr %12, align 8, !tbaa !28
  %.not = icmp eq ptr %13, @init_destination
  br i1 %.not, label %18, label %14

14:                                               ; preds = %11
  %15 = load ptr, ptr %0, align 8, !tbaa !31
  %16 = getelementptr inbounds nuw i8, ptr %15, i64 40
  store i32 23, ptr %16, align 8, !tbaa !32
  %17 = load ptr, ptr %15, align 8, !tbaa !35
  tail call void %17(ptr noundef nonnull %0) #8
  %.pre = load ptr, ptr %3, align 8, !tbaa !3
  br label %18

18:                                               ; preds = %11, %14, %6
  %19 = phi ptr [ %4, %11 ], [ %.pre, %14 ], [ %10, %6 ]
  %20 = getelementptr inbounds nuw i8, ptr %19, i64 16
  store ptr @init_destination, ptr %20, align 8, !tbaa !36
  %21 = getelementptr inbounds nuw i8, ptr %19, i64 24
  store ptr @empty_output_buffer, ptr %21, align 8, !tbaa !39
  %22 = getelementptr inbounds nuw i8, ptr %19, i64 32
  store ptr @term_destination, ptr %22, align 8, !tbaa !40
  %23 = getelementptr inbounds nuw i8, ptr %19, i64 40
  store ptr %1, ptr %23, align 8, !tbaa !41
  ret void
}